; ModuleID = '28/522.c'
source_filename = "28/522.c"
target datalayout = "e-m:e-p270:32:32-p271:32:32-p272:64:64-i64:64-f80:128-n8:16:32:64-S128"
target triple = "x86_64-pc-linux-gnu"

@.str = private unnamed_addr constant [3 x i8] c"%d\00", align 1
@.str.1 = private unnamed_addr constant [2 x i8] c",\00", align 1

; Function Attrs: noinline nounwind uwtable
define dso_local void @main() #0 {
  %1 = alloca [10000 x i8], align 16
  %2 = alloca i32, align 4
  %3 = alloca i32, align 4
  %4 = alloca i32, align 4
  %5 = alloca [301 x i32], align 16
  store i32 1, i32* %4, align 4
  %6 = getelementptr inbounds [10000 x i8], [10000 x i8]* %1, i64 0, i64 0
  %7 = call i32 (i8*, ...) bitcast (i32 (...)* @gets to i32 (i8*, ...)*)(i8* %6)
  %8 = getelementptr inbounds [10000 x i8], [10000 x i8]* %1, i64 0, i64 0
  %9 = call i64 @strlen(i8* %8) #3
  %10 = trunc i64 %9 to i32
  store i32 %10, i32* %2, align 4
  %11 = getelementptr inbounds [301 x i32], [301 x i32]* %5, i64 0, i64 1
  store i32 0, i32* %11, align 4
  store i32 0, i32* %3, align 4
  br label %12

12:                                               ; preds = %51, %0
  %13 = load i32, i32* %3, align 4
  %14 = load i32, i32* %2, align 4
  %15 = icmp slt i32 %13, %14
  br i1 %15, label %16, label %54

16:                                               ; preds = %12
  %17 = load i32, i32* %3, align 4
  %18 = sext i32 %17 to i64
  %19 = getelementptr inbounds [10000 x i8], [10000 x i8]* %1, i64 0, i64 %18
  %20 = load i8, i8* %19, align 1
  %21 = sext i8 %20 to i32
  %22 = icmp eq i32 %21, 32
  br i1 %22, label %23, label %37

23:                                               ; preds = %16
  %24 = load i32, i32* %3, align 4
  %25 = add nsw i32 %24, 1
  %26 = sext i32 %25 to i64
  %27 = getelementptr inbounds [10000 x i8], [10000 x i8]* %1, i64 0, i64 %26
  %28 = load i8, i8* %27, align 1
  %29 = sext i8 %28 to i32
  %30 = icmp ne i32 %29, 32
  br i1 %30, label %31, label %37

31:                                               ; preds = %23
  %32 = load i32, i32* %4, align 4
  %33 = add nsw i32 %32, 1
  store i32 %33, i32* %4, align 4
  %34 = load i32, i32* %4, align 4
  %35 = sext i32 %34 to i64
  %36 = getelementptr inbounds [301 x i32], [301 x i32]* %5, i64 0, i64 %35
  store i32 0, i32* %36, align 4
  br label %37

37:                                               ; preds = %31, %23, %16
  %38 = load i32, i32* %3, align 4
  %39 = sext i32 %38 to i64
  %40 = getelementptr inbounds [10000 x i8], [10000 x i8]* %1, i64 0, i64 %39
  %41 = load i8, i8* %40, align 1
  %42 = sext i8 %41 to i32
  %43 = icmp ne i32 %42, 32
  br i1 %43, label %44, label %50

44:                                               ; preds = %37
  %45 = load i32, i32* %4, align 4
  %46 = sext i32 %45 to i64
  %47 = getelementptr inbounds [301 x i32], [301 x i32]* %5, i64 0, i64 %46
  %48 = load i32, i32* %47, align 4
  %49 = add nsw i32 %48, 1
  store i32 %49, i32* %47, align 4
  br label %50

50:                                               ; preds = %44, %37
  br label %51

51:                                               ; preds = %50
  %52 = load i32, i32* %3, align 4
  %53 = add nsw i32 %52, 1
  store i32 %53, i32* %3, align 4
  br label %12

54:                                               ; preds = %12
  store i32 1, i32* %3, align 4
  br label %55

55:                                               ; preds = %71, %54
  %56 = load i32, i32* %3, align 4
  %57 = load i32, i32* %4, align 4
  %58 = icmp sle i32 %56, %57
  br i1 %58, label %59, label %74

59:                                               ; preds = %55
  %60 = load i32, i32* %3, align 4
  %61 = sext i32 %60 to i64
  %62 = getelementptr inbounds [301 x i32], [301 x i32]* %5, i64 0, i64 %61
  %63 = load i32, i32* %62, align 4
  %64 = call i32 (i8*, ...) @printf(i8* getelementptr inbounds ([3 x i8], [3 x i8]* @.str, i64 0, i64 0), i32 %63)
  %65 = load i32, i32* %3, align 4
  %66 = load i32, i32* %4, align 4
  %67 = icmp ne i32 %65, %66
  br i1 %67, label %68, label %70

68:                                               ; preds = %59
  %69 = call i32 (i8*, ...) @printf(i8* getelementptr inbounds ([2 x i8], [2 x i8]* @.str.1, i64 0, i64 0))
  br label %70

70:                                               ; preds = %68, %59
  br label %71

71:                                               ; preds = %70
  %72 = load i32, i32* %3, align 4
  %73 = add nsw i32 %72, 1
  store i32 %73, i32* %3, align 4
  br label %55

74:                                               ; preds = %55
  ret void
}

declare dso_local i32 @gets(...) #1

; Function Attrs: nounwind readonly
declare dso_local i64 @strlen(i8*) #2

declare dso_local i32 @printf(i8*, ...) #1


!llvm.module.flags = !{!0}
!llvm.ident = !{!1}

!0 = !{i32 1, !"wchar_size", i32 4}
!1 = !{!"clang version 10.0.0-4ubuntu1 "}
